; Function Attrs: mustprogress nofree norecurse nosync nounwind willreturn memory(read, inaccessiblemem: none) uwtable
define dso_local noundef zeroext i1 @_ZN4Luau7CodeGen24isNativeExecutionEnabledEP9lua_State(ptr noundef readonly captures(none) %0) local_unnamed_addr #11 {
  %2 = getelementptr i8, ptr %0, i64 24
  %.val = load ptr, ptr %2, align 8, !tbaa !121
  %3 = getelementptr i8, ptr %.val, i64 3368
  %.val.val = load ptr, ptr %3, align 8, !tbaa !148
  %.not = icmp eq ptr %.val.val, null
  br i1 %.not, label %8, label %4

4:                                                ; preds = %1
  %5 = getelementptr inbounds nuw i8, ptr %.val, i64 3392
  %6 = load ptr, ptr %5, align 8, !tbaa !312
  %7 = icmp eq ptr %6, @_ZN4Luau7CodeGenL7onEnterEP9lua_StateP5Proto
  br label %8

8:                                                ; preds = %4, %1
  %9 = phi i1 [ false, %1 ], [ %7, %4 ]
  ret i1 %9
}